; ModuleID = '38/1245.c'
source_filename = "38/1245.c"
target datalayout = "e-m:e-p270:32:32-p271:32:32-p272:64:64-i64:64-f80:128-n8:16:32:64-S128"
target triple = "x86_64-pc-linux-gnu"

@.str = private unnamed_addr constant [3 x i8] c"%d\00", align 1
@.str.1 = private unnamed_addr constant [4 x i8] c"%lf\00", align 1
@.str.2 = private unnamed_addr constant [6 x i8] c"%.5f\0A\00", align 1

; Function Attrs: noinline nounwind uwtable
define dso_local double @s(double* %0, i32 %1) #0 {
  %3 = alloca double*, align 8
  %4 = alloca i32, align 4
  %5 = alloca i32, align 4
  %6 = alloca double, align 8
  %7 = alloca double, align 8
  %8 = alloca double*, align 8
  store double* %0, double** %3, align 8
  store i32 %1, i32* %4, align 4
  store double 0.000000e+00, double* %6, align 8
  store double 0.000000e+00, double* %7, align 8
  %9 = load double*, double** %3, align 8
  store double* %9, double** %8, align 8
  store i32 0, i32* %5, align 4
  br label %10

10:                                               ; preds = %19, %2
  %11 = load i32, i32* %5, align 4
  %12 = load i32, i32* %4, align 4
  %13 = icmp slt i32 %11, %12
  br i1 %13, label %14, label %24

14:                                               ; preds = %10
  %15 = load double*, double** %8, align 8
  %16 = load double, double* %15, align 8
  %17 = load double, double* %7, align 8
  %18 = fadd double %17, %16
  store double %18, double* %7, align 8
  br label %19

19:                                               ; preds = %14
  %20 = load i32, i32* %5, align 4
  %21 = add nsw i32 %20, 1
  store i32 %21, i32* %5, align 4
  %22 = load double*, double** %8, align 8
  %23 = getelementptr inbounds double, double* %22, i32 1
  store double* %23, double** %8, align 8
  br label %10

24:                                               ; preds = %10
  %25 = load i32, i32* %4, align 4
  %26 = sitofp i32 %25 to double
  %27 = load double, double* %7, align 8
  %28 = fdiv double %27, %26
  store double %28, double* %7, align 8
  %29 = load double*, double** %3, align 8
  store double* %29, double** %8, align 8
  store i32 0, i32* %5, align 4
  br label %30

30:                                               ; preds = %46, %24
  %31 = load i32, i32* %5, align 4
  %32 = load i32, i32* %4, align 4
  %33 = icmp slt i32 %31, %32
  br i1 %33, label %34, label %51

34:                                               ; preds = %30
  %35 = load double*, double** %8, align 8
  %36 = load double, double* %35, align 8
  %37 = load double, double* %7, align 8
  %38 = fsub double %36, %37
  %39 = load double*, double** %8, align 8
  %40 = load double, double* %39, align 8
  %41 = load double, double* %7, align 8
  %42 = fsub double %40, %41
  %43 = fmul double %38, %42
  %44 = load double, double* %6, align 8
  %45 = fadd double %44, %43
  store double %45, double* %6, align 8
  br label %46

46:                                               ; preds = %34
  %47 = load i32, i32* %5, align 4
  %48 = add nsw i32 %47, 1
  store i32 %48, i32* %5, align 4
  %49 = load double*, double** %8, align 8
  %50 = getelementptr inbounds double, double* %49, i32 1
  store double* %50, double** %8, align 8
  br label %30

51:                                               ; preds = %30
  %52 = load double, double* %6, align 8
  %53 = load i32, i32* %4, align 4
  %54 = sitofp i32 %53 to double
  %55 = fdiv double %52, %54
  %56 = call double @sqrt(double %55) #3
  ret double %56
}

; Function Attrs: nounwind
declare dso_local double @sqrt(double) #1

; Function Attrs: noinline nounwind uwtable
define dso_local void @main() #0 {
  %1 = alloca i32, align 4
  %2 = alloca i32, align 4
  %3 = alloca i32, align 4
  %4 = alloca i32, align 4
  %5 = alloca [100 x double*], align 16
  %6 = alloca double*, align 8
  %7 = call i32 (i8*, ...) @__isoc99_scanf(i8* getelementptr inbounds ([3 x i8], [3 x i8]* @.str, i64 0, i64 0), i32* %1)
  store i32 0, i32* %2, align 4
  br label %8

8:                                                ; preds = %46, %0
  %9 = load i32, i32* %2, align 4
  %10 = load i32, i32* %1, align 4
  %11 = icmp slt i32 %9, %10
  br i1 %11, label %12, label %49

12:                                               ; preds = %8
  %13 = call i32 (i8*, ...) @__isoc99_scanf(i8* getelementptr inbounds ([3 x i8], [3 x i8]* @.str, i64 0, i64 0), i32* %3)
  %14 = load i32, i32* %3, align 4
  %15 = sext i32 %14 to i64
  %16 = mul i64 %15, 8
  %17 = call noalias i8* @malloc(i64 %16) #3
  %18 = bitcast i8* %17 to double*
  %19 = load i32, i32* %2, align 4
  %20 = sext i32 %19 to i64
  %21 = getelementptr inbounds [100 x double*], [100 x double*]* %5, i64 0, i64 %20
  store double* %18, double** %21, align 8
  %22 = load i32, i32* %2, align 4
  %23 = sext i32 %22 to i64
  %24 = getelementptr inbounds [100 x double*], [100 x double*]* %5, i64 0, i64 %23
  %25 = load double*, double** %24, align 8
  store double* %25, double** %6, align 8
  store i32 0, i32* %4, align 4
  br label %26

26:                                               ; preds = %35, %12
  %27 = load i32, i32* %4, align 4
  %28 = load i32, i32* %3, align 4
  %29 = icmp slt i32 %27, %28
  br i1 %29, label %30, label %38

30:                                               ; preds = %26
  %31 = load double*, double** %6, align 8
  %32 = call i32 (i8*, ...) @__isoc99_scanf(i8* getelementptr inbounds ([4 x i8], [4 x i8]* @.str.1, i64 0, i64 0), double* %31)
  %33 = load double*, double** %6, align 8
  %34 = getelementptr inbounds double, double* %33, i32 1
  store double* %34, double** %6, align 8
  br label %35

35:                                               ; preds = %30
  %36 = load i32, i32* %4, align 4
  %37 = add nsw i32 %36, 1
  store i32 %37, i32* %4, align 4
  br label %26

38:                                               ; preds = %26
  %39 = load i32, i32* %2, align 4
  %40 = sext i32 %39 to i64
  %41 = getelementptr inbounds [100 x double*], [100 x double*]* %5, i64 0, i64 %40
  %42 = load double*, double** %41, align 8
  %43 = load i32, i32* %3, align 4
  %44 = call double @s(double* %42, i32 %43)
  %45 = call i32 (i8*, ...) @printf(i8* getelementptr inbounds ([6 x i8], [6 x i8]* @.str.2, i64 0, i64 0), double %44)
  br label %46

46:                                               ; preds = %38
  %47 = load i32, i32* %2, align 4
  %48 = add nsw i32 %47, 1
  store i32 %48, i32* %2, align 4
  br label %8

49:                                               ; preds = %8
  ret void
}

declare dso_local i32 @__isoc99_scanf(i8*, ...) #2

; Function Attrs: nounwind
declare dso_local noalias i8* @malloc(i64) #1

declare dso_local i32 @printf(i8*, ...) #2


!llvm.module.flags = !{!0}
!llvm.ident = !{!1}

!0 = !{i32 1, !"wchar_size", i32 4}
!1 = !{!"clang version 10.0.0-4ubuntu1 "}
